; Function Attrs: mustprogress uwtable
define void @_ZN7rocksdb24CompressedSecondaryCache11InsertSavedERKNS_5SliceES3_NS_15CompressionTypeENS_9CacheTierE(ptr noalias sret(%"class.rocksdb::Status") align 8 %agg.result, ptr nocapture noundef nonnull readonly align 8 dereferenceable(217) %this, ptr noundef nonnull align 8 dereferenceable(16) %key, ptr noundef nonnull align 8 dereferenceable(16) %saved, i8 noundef zeroext %type, i8 noundef zeroext %source) unnamed_addr #0 align 2 personality ptr @__gxx_personality_v0 {
entry:
  %cmp = icmp eq i8 %type, 0
  br i1 %cmp, label %if.then, label %if.end

if.then:                                          ; preds = %entry
  %state_.i.i = getelementptr inbounds i8, ptr %agg.result, i64 8
  store ptr null, ptr %state_.i.i, align 8, !alias.scope !41
  tail call void @llvm.memset.p0.i64(ptr noundef nonnull align 8 dereferenceable(6) %agg.result, i8 0, i64 6, i1 false), !alias.scope !41
  br label %return

if.end:                                           ; preds = %entry
  %call = tail call noundef zeroext i1 @_ZN7rocksdb24CompressedSecondaryCache16MaybeInsertDummyERKNS_5SliceE(ptr noundef nonnull align 8 dereferenceable(217) %this, ptr noundef nonnull align 8 dereferenceable(16) %key)
  br i1 %call, label %if.then2, label %if.end3

if.then2:                                         ; preds = %if.end
  %state_.i.i3 = getelementptr inbounds i8, ptr %agg.result, i64 8
  store ptr null, ptr %state_.i.i3, align 8, !alias.scope !44
  tail call void @llvm.memset.p0.i64(ptr noundef nonnull align 8 dereferenceable(6) %agg.result, i8 0, i64 6, i1 false), !alias.scope !44
  br label %return

if.end3:                                          ; preds = %if.end
  tail call void @_ZN7rocksdb24CompressedSecondaryCache14InsertInternalERKNS_5SliceEPvPKNS_5Cache15CacheItemHelperENS_15CompressionTypeENS_9CacheTierE(ptr sret(%"class.rocksdb::Status") align 8 %agg.result, ptr noundef nonnull align 8 dereferenceable(217) %this, ptr noundef nonnull align 8 dereferenceable(16) %key, ptr noundef nonnull %saved, ptr noundef nonnull @_ZN7rocksdb21kSliceCacheItemHelperE, i8 noundef zeroext %type, i8 noundef zeroext %source)
  br label %return

return:                                           ; preds = %if.end3, %if.then2, %if.then
  ret void
}